; Function Attrs: mustprogress uwtable
define hidden void @_ZN4cvc58internal13NodeConverter14addToTypeCacheENS0_8TypeNodeES2_(ptr noundef nonnull align 8 dereferenceable(233) %this, ptr noundef nonnull %cur, ptr noundef %ret) local_unnamed_addr #4 align 2 {
entry:
  %d_tcache = getelementptr inbounds i8, ptr %this, i64 176
  %call.i = tail call noundef nonnull align 8 dereferenceable(8) ptr @_ZNSt8__detail9_Map_baseIN4cvc58internal8TypeNodeESt4pairIKS3_S3_ESaIS6_ENS_10_Select1stESt8equal_toIS3_ESt4hashIS3_ENS_18_Mod_range_hashingENS_20_Default_ranged_hashENS_20_Prime_rehash_policyENS_17_Hashtable_traitsILb1ELb0ELb1EEELb1EEixERS5_(ptr noundef nonnull align 1 dereferenceable(1) %d_tcache, ptr noundef nonnull align 8 dereferenceable(8) %cur)
  %0 = load ptr, ptr %call.i, align 8
  %1 = load ptr, ptr %ret, align 8
  %cmp.not.i = icmp eq ptr %0, %1
  br i1 %cmp.not.i, label %_ZN4cvc58internal8TypeNodeaSERKS1_.exit, label %if.then.i

if.then.i:                                        ; preds = %entry
  %bf.load.i.i = load i64, ptr %0, align 8
  %2 = and i64 %bf.load.i.i, 1152920405095219200
  %cmp.not.i.i = icmp eq i64 %2, 1152920405095219200
  br i1 %cmp.not.i.i, label %_ZN4cvc58internal4expr9NodeValue3decEv.exit.i, label %if.then.i.i

if.then.i.i:                                      ; preds = %if.then.i
  %bf.value.i.i = add i64 %bf.load.i.i, 1152920405095219200
  %bf.shl.i.i = and i64 %bf.value.i.i, 1152920405095219200
  %bf.clear7.i.i = and i64 %bf.load.i.i, -1152920405095219201
  %bf.set.i.i = or disjoint i64 %bf.shl.i.i, %bf.clear7.i.i
  store i64 %bf.set.i.i, ptr %0, align 8
  %cmp12.i.i = icmp eq i64 %bf.shl.i.i, 0
  br i1 %cmp12.i.i, label %if.then13.i.i, label %_ZN4cvc58internal4expr9NodeValue3decEv.exit.i

if.then13.i.i:                                    ; preds = %if.then.i.i
  tail call void @_ZN4cvc58internal4expr9NodeValue15markForDeletionEv(ptr noundef nonnull align 8 dereferenceable(16) %0)
  br label %_ZN4cvc58internal4expr9NodeValue3decEv.exit.i

_ZN4cvc58internal4expr9NodeValue3decEv.exit.i:    ; preds = %if.then13.i.i, %if.then.i.i, %if.then.i
  %3 = load ptr, ptr %ret, align 8
  store ptr %3, ptr %call.i, align 8
  %bf.load.i2.i = load i64, ptr %3, align 8
  %bf.lshr.i.i = lshr i64 %bf.load.i2.i, 40
  %4 = trunc i64 %bf.lshr.i.i to i32
  %bf.cast.i.i = and i32 %4, 1048575
  %cmp.i.i = icmp ult i32 %bf.cast.i.i, 1048574
  br i1 %cmp.i.i, label %if.then.i5.i, label %if.else.i.i

if.then.i5.i:                                     ; preds = %_ZN4cvc58internal4expr9NodeValue3decEv.exit.i
  %bf.value.i6.i = add i64 %bf.load.i2.i, 1099511627776
  %bf.shl.i7.i = and i64 %bf.value.i6.i, 1152920405095219200
  %bf.clear7.i8.i = and i64 %bf.load.i2.i, -1152920405095219201
  %bf.set.i9.i = or disjoint i64 %bf.shl.i7.i, %bf.clear7.i8.i
  store i64 %bf.set.i9.i, ptr %3, align 8
  br label %_ZN4cvc58internal8TypeNodeaSERKS1_.exit

if.else.i.i:                                      ; preds = %_ZN4cvc58internal4expr9NodeValue3decEv.exit.i
  %cmp12.i3.i = icmp eq i32 %bf.cast.i.i, 1048574
  br i1 %cmp12.i3.i, label %if.then13.i4.i, label %_ZN4cvc58internal8TypeNodeaSERKS1_.exit

if.then13.i4.i:                                   ; preds = %if.else.i.i
  %bf.set23.i.i = or i64 %bf.load.i2.i, 1152920405095219200
  store i64 %bf.set23.i.i, ptr %3, align 8
  tail call void @_ZN4cvc58internal4expr9NodeValue20markRefCountMaxedOutEv(ptr noundef nonnull align 8 dereferenceable(16) %3)
  br label %_ZN4cvc58internal8TypeNodeaSERKS1_.exit

_ZN4cvc58internal8TypeNodeaSERKS1_.exit:          ; preds = %entry, %if.then.i5.i, %if.else.i.i, %if.then13.i4.i
  %d_forceIdem = getelementptr inbounds i8, ptr %this, i64 232
  %5 = load i8, ptr %d_forceIdem, align 8
  %6 = and i8 %5, 1
  %tobool.not = icmp eq i8 %6, 0
  br i1 %tobool.not, label %if.end, label %if.then

if.then:                                          ; preds = %_ZN4cvc58internal8TypeNodeaSERKS1_.exit
  %call.i1 = tail call noundef nonnull align 8 dereferenceable(8) ptr @_ZNSt8__detail9_Map_baseIN4cvc58internal8TypeNodeESt4pairIKS3_S3_ESaIS6_ENS_10_Select1stESt8equal_toIS3_ESt4hashIS3_ENS_18_Mod_range_hashingENS_20_Default_ranged_hashENS_20_Prime_rehash_policyENS_17_Hashtable_traitsILb1ELb0ELb1EEELb1EEixERS5_(ptr noundef nonnull align 1 dereferenceable(1) %d_tcache, ptr noundef nonnull align 8 dereferenceable(8) %ret)
  %7 = load ptr, ptr %call.i1, align 8
  %8 = load ptr, ptr %ret, align 8
  %cmp.not.i2 = icmp eq ptr %7, %8
  br i1 %cmp.not.i2, label %if.end, label %if.then.i3

if.then.i3:                                       ; preds = %if.then
  %bf.load.i.i4 = load i64, ptr %7, align 8
  %9 = and i64 %bf.load.i.i4, 1152920405095219200
  %cmp.not.i.i5 = icmp eq i64 %9, 1152920405095219200
  br i1 %cmp.not.i.i5, label %_ZN4cvc58internal4expr9NodeValue3decEv.exit.i12, label %if.then.i.i6

if.then.i.i6:                                     ; preds = %if.then.i3
  %bf.value.i.i7 = add i64 %bf.load.i.i4, 1152920405095219200
  %bf.shl.i.i8 = and i64 %bf.value.i.i7, 1152920405095219200
  %bf.clear7.i.i9 = and i64 %bf.load.i.i4, -1152920405095219201
  %bf.set.i.i10 = or disjoint i64 %bf.shl.i.i8, %bf.clear7.i.i9
  store i64 %bf.set.i.i10, ptr %7, align 8
  %cmp12.i.i11 = icmp eq i64 %bf.shl.i.i8, 0
  br i1 %cmp12.i.i11, label %if.then13.i.i26, label %_ZN4cvc58internal4expr9NodeValue3decEv.exit.i12

if.then13.i.i26:                                  ; preds = %if.then.i.i6
  tail call void @_ZN4cvc58internal4expr9NodeValue15markForDeletionEv(ptr noundef nonnull align 8 dereferenceable(16) %7)
  br label %_ZN4cvc58internal4expr9NodeValue3decEv.exit.i12

_ZN4cvc58internal4expr9NodeValue3decEv.exit.i12:  ; preds = %if.then13.i.i26, %if.then.i.i6, %if.then.i3
  %10 = load ptr, ptr %ret, align 8
  store ptr %10, ptr %call.i1, align 8
  %bf.load.i2.i13 = load i64, ptr %10, align 8
  %bf.lshr.i.i14 = lshr i64 %bf.load.i2.i13, 40
  %11 = trunc i64 %bf.lshr.i.i14 to i32
  %bf.cast.i.i15 = and i32 %11, 1048575
  %cmp.i.i16 = icmp ult i32 %bf.cast.i.i15, 1048574
  br i1 %cmp.i.i16, label %if.then.i5.i21, label %if.else.i.i17

if.then.i5.i21:                                   ; preds = %_ZN4cvc58internal4expr9NodeValue3decEv.exit.i12
  %bf.value.i6.i22 = add i64 %bf.load.i2.i13, 1099511627776
  %bf.shl.i7.i23 = and i64 %bf.value.i6.i22, 1152920405095219200
  %bf.clear7.i8.i24 = and i64 %bf.load.i2.i13, -1152920405095219201
  %bf.set.i9.i25 = or disjoint i64 %bf.shl.i7.i23, %bf.clear7.i8.i24
  store i64 %bf.set.i9.i25, ptr %10, align 8
  br label %if.end

if.else.i.i17:                                    ; preds = %_ZN4cvc58internal4expr9NodeValue3decEv.exit.i12
  %cmp12.i3.i18 = icmp eq i32 %bf.cast.i.i15, 1048574
  br i1 %cmp12.i3.i18, label %if.then13.i4.i19, label %if.end

if.then13.i4.i19:                                 ; preds = %if.else.i.i17
  %bf.set23.i.i20 = or i64 %bf.load.i2.i13, 1152920405095219200
  store i64 %bf.set23.i.i20, ptr %10, align 8
  tail call void @_ZN4cvc58internal4expr9NodeValue20markRefCountMaxedOutEv(ptr noundef nonnull align 8 dereferenceable(16) %10)
  br label %if.end

if.end:                                           ; preds = %if.then13.i4.i19, %if.else.i.i17, %if.then.i5.i21, %if.then, %_ZN4cvc58internal8TypeNodeaSERKS1_.exit
  ret void
}